target datalayout = "e-m:e-p270:32:32-p271:32:32-p272:64:64-i64:64-i128:128-f80:128-n8:16:32:64-S128"
target triple = "x86_64-pc-linux-gnu"

%struct._GC_arrays = type { i64, i64, i64, ptr, i64, i64, i64, i64, i64, i64, i64, i64, i64, i64, ptr, ptr, ptr, ptr, ptr, ptr, ptr, ptr, i32, i32, i32, i64, i64, i64, i64, i64, ptr, ptr, ptr, i64, i64, i32, i64, i64, ptr, i64, %struct.dl_hashtbl_s, %struct.dl_hashtbl_s, %struct.fnlz_roots_s, i32, ptr, i64, i64, i32, i32, i64, i64, i64, ptr, [64 x ptr], [8 x i8], [64 x ptr], [129 x ptr], [129 x ptr], [129 x ptr], [129 x ptr], [2049 x i64], [129 x ptr], [4096 x i8], [4096 x i64], [4096 x i64], ptr, [2048 x %struct.roots], [512 x %struct.exclusion], [2048 x ptr] }
%struct.dl_hashtbl_s = type { ptr, i64, i32 }
%struct.fnlz_roots_s = type { ptr, ptr }
%struct.roots = type { ptr, ptr, ptr, i32 }
%struct.exclusion = type { ptr, ptr }
%struct.GC_hblk_s = type { [4096 x i8] }
%struct.bi = type { [1024 x ptr], ptr, ptr, i64, ptr }
%struct.hblkhdr = type { ptr, ptr, ptr, i8, i8, i16, i64, i64, ptr, i64, %union.anon }
%union.anon = type { i64, [256 x i8] }

@GC_arrays = global %struct._GC_arrays zeroinitializer, align 8
@GC_is_initialized = internal global i32 0, align 4
@.str.37 = private unnamed_addr constant [56 x i8] c"GC_debug_toggleref_add called with non-base-pointer %p\0A\00", align 1

; Function Attrs: nounwind uwtable
define internal ptr @GC_find_header(ptr noundef %0) #0 {
  %2 = alloca ptr, align 8
  %3 = alloca ptr, align 8
  %4 = alloca ptr, align 8
  %5 = alloca ptr, align 8
  %6 = alloca i64, align 8
  %7 = alloca ptr, align 8
  store ptr %0, ptr %2, align 8
  br label %8

8:                                                ; preds = %1
  br label %9

9:                                                ; preds = %8
  br label %10

10:                                               ; preds = %9
  %11 = load ptr, ptr %2, align 8
  %12 = ptrtoint ptr %11 to i64
  %13 = lshr i64 %12, 22
  store i64 %13, ptr %6, align 8
  %14 = load i64, ptr %6, align 8
  %15 = and i64 %14, 2047
  %16 = getelementptr inbounds %struct._GC_arrays, ptr @GC_arrays, i32 0, i32 68
  %17 = getelementptr inbounds [2048 x ptr], ptr %16, i64 0, i64 %15
  %18 = load ptr, ptr %17, align 8
  store ptr %18, ptr %7, align 8
  br label %19

19:                                               ; preds = %32, %10
  %20 = load ptr, ptr %7, align 8
  %21 = getelementptr inbounds %struct.bi, ptr %20, i32 0, i32 3
  %22 = load i64, ptr %21, align 8
  %23 = load i64, ptr %6, align 8
  %24 = icmp ne i64 %22, %23
  br i1 %24, label %25, label %30

25:                                               ; preds = %19
  %26 = load ptr, ptr %7, align 8
  %27 = getelementptr inbounds %struct._GC_arrays, ptr @GC_arrays, i32 0, i32 30
  %28 = load ptr, ptr %27, align 8
  %29 = icmp ne ptr %26, %28
  br label %30

30:                                               ; preds = %25, %19
  %31 = phi i1 [ false, %19 ], [ %29, %25 ]
  br i1 %31, label %32, label %36

32:                                               ; preds = %30
  %33 = load ptr, ptr %7, align 8
  %34 = getelementptr inbounds %struct.bi, ptr %33, i32 0, i32 4
  %35 = load ptr, ptr %34, align 8
  store ptr %35, ptr %7, align 8
  br label %19, !llvm.loop !9

36:                                               ; preds = %30
  %37 = load ptr, ptr %7, align 8
  store ptr %37, ptr %5, align 8
  br label %38

38:                                               ; preds = %36
  %39 = load ptr, ptr %5, align 8
  %40 = getelementptr inbounds %struct.bi, ptr %39, i32 0, i32 0
  %41 = load ptr, ptr %2, align 8
  %42 = ptrtoint ptr %41 to i64
  %43 = lshr i64 %42, 12
  %44 = and i64 %43, 1023
  %45 = getelementptr inbounds [1024 x ptr], ptr %40, i64 0, i64 %44
  store ptr %45, ptr %4, align 8
  br label %46

46:                                               ; preds = %38
  %47 = load ptr, ptr %4, align 8
  %48 = load ptr, ptr %47, align 8
  store ptr %48, ptr %3, align 8
  br label %49

49:                                               ; preds = %46
  %50 = load ptr, ptr %3, align 8
  ret ptr %50
}

; Function Attrs: nounwind uwtable
define internal ptr @GC_find_starting_hblk(ptr noundef %0, ptr noundef %1) #0 {
  %3 = alloca ptr, align 8
  %4 = alloca ptr, align 8
  %5 = alloca ptr, align 8
  store ptr %0, ptr %3, align 8
  store ptr %1, ptr %4, align 8
  %6 = load ptr, ptr %4, align 8
  %7 = load ptr, ptr %6, align 8
  store ptr %7, ptr %5, align 8
  br label %8

8:                                                ; preds = %18, %2
  %9 = load ptr, ptr %5, align 8
  %10 = ptrtoint ptr %9 to i64
  %11 = icmp ule i64 %10, 4095
  br i1 %11, label %12, label %21

12:                                               ; preds = %8
  %13 = load ptr, ptr %3, align 8
  %14 = load ptr, ptr %5, align 8
  %15 = ptrtoint ptr %14 to i64
  %16 = sub i64 0, %15
  %17 = getelementptr inbounds %struct.GC_hblk_s, ptr %13, i64 %16
  store ptr %17, ptr %3, align 8
  br label %18

18:                                               ; preds = %12
  %19 = load ptr, ptr %3, align 8
  %20 = call ptr @GC_find_header(ptr noundef %19)
  store ptr %20, ptr %5, align 8
  br label %8, !llvm.loop !10

21:                                               ; preds = %8
  %22 = load ptr, ptr %5, align 8
  %23 = load ptr, ptr %4, align 8
  store ptr %22, ptr %23, align 8
  %24 = load ptr, ptr %3, align 8
  ret ptr %24
}

; Function Attrs: nounwind uwtable
define ptr @GC_base(ptr noundef %0) #0 {
  %2 = alloca ptr, align 8
  %3 = alloca ptr, align 8
  %4 = alloca ptr, align 8
  %5 = alloca ptr, align 8
  %6 = alloca ptr, align 8
  %7 = alloca ptr, align 8
  %8 = alloca i64, align 8
  %9 = alloca ptr, align 8
  %10 = alloca i64, align 8
  %11 = alloca ptr, align 8
  store ptr %0, ptr %3, align 8
  %12 = load ptr, ptr %3, align 8
  store ptr %12, ptr %4, align 8
  %13 = load i32, ptr @GC_is_initialized, align 4
  %14 = sext i32 %13 to i64
  %15 = icmp ne i64 %14, 0
  br i1 %15, label %17, label %16

16:                                               ; preds = %1
  store ptr null, ptr %2, align 8
  br label %115

17:                                               ; preds = %1
  %18 = load ptr, ptr %4, align 8
  %19 = ptrtoint ptr %18 to i64
  %20 = and i64 %19, -4096
  %21 = inttoptr i64 %20 to ptr
  store ptr %21, ptr %5, align 8
  br label %22

22:                                               ; preds = %17
  %23 = load ptr, ptr %4, align 8
  %24 = ptrtoint ptr %23 to i64
  %25 = lshr i64 %24, 22
  store i64 %25, ptr %8, align 8
  %26 = load i64, ptr %8, align 8
  %27 = and i64 %26, 2047
  %28 = getelementptr inbounds %struct._GC_arrays, ptr @GC_arrays, i32 0, i32 68
  %29 = getelementptr inbounds [2048 x ptr], ptr %28, i64 0, i64 %27
  %30 = load ptr, ptr %29, align 8
  store ptr %30, ptr %9, align 8
  br label %31

31:                                               ; preds = %44, %22
  %32 = load ptr, ptr %9, align 8
  %33 = getelementptr inbounds %struct.bi, ptr %32, i32 0, i32 3
  %34 = load i64, ptr %33, align 8
  %35 = load i64, ptr %8, align 8
  %36 = icmp ne i64 %34, %35
  br i1 %36, label %37, label %42

37:                                               ; preds = %31
  %38 = load ptr, ptr %9, align 8
  %39 = getelementptr inbounds %struct._GC_arrays, ptr @GC_arrays, i32 0, i32 30
  %40 = load ptr, ptr %39, align 8
  %41 = icmp ne ptr %38, %40
  br label %42

42:                                               ; preds = %37, %31
  %43 = phi i1 [ false, %31 ], [ %41, %37 ]
  br i1 %43, label %44, label %48

44:                                               ; preds = %42
  %45 = load ptr, ptr %9, align 8
  %46 = getelementptr inbounds %struct.bi, ptr %45, i32 0, i32 4
  %47 = load ptr, ptr %46, align 8
  store ptr %47, ptr %9, align 8
  br label %31, !llvm.loop !11

48:                                               ; preds = %42
  %49 = load ptr, ptr %9, align 8
  store ptr %49, ptr %6, align 8
  br label %50

50:                                               ; preds = %48
  %51 = load ptr, ptr %6, align 8
  %52 = getelementptr inbounds %struct.bi, ptr %51, i32 0, i32 0
  %53 = load ptr, ptr %4, align 8
  %54 = ptrtoint ptr %53 to i64
  %55 = lshr i64 %54, 12
  %56 = and i64 %55, 1023
  %57 = getelementptr inbounds [1024 x ptr], ptr %52, i64 0, i64 %56
  %58 = load ptr, ptr %57, align 8
  store ptr %58, ptr %7, align 8
  %59 = load ptr, ptr %7, align 8
  %60 = icmp eq ptr null, %59
  br i1 %60, label %61, label %62

61:                                               ; preds = %50
  store ptr null, ptr %2, align 8
  br label %115

62:                                               ; preds = %50
  %63 = load ptr, ptr %7, align 8
  %64 = ptrtoint ptr %63 to i64
  %65 = icmp ule i64 %64, 4095
  br i1 %65, label %66, label %70

66:                                               ; preds = %62
  %67 = load ptr, ptr %5, align 8
  %68 = call ptr @GC_find_starting_hblk(ptr noundef %67, ptr noundef %7)
  store ptr %68, ptr %5, align 8
  %69 = load ptr, ptr %5, align 8
  store ptr %69, ptr %4, align 8
  br label %70

70:                                               ; preds = %66, %62
  %71 = load ptr, ptr %7, align 8
  %72 = getelementptr inbounds %struct.hblkhdr, ptr %71, i32 0, i32 4
  %73 = load i8, ptr %72, align 1
  %74 = zext i8 %73 to i32
  %75 = and i32 %74, 4
  %76 = icmp ne i32 %75, 0
  br i1 %76, label %77, label %78

77:                                               ; preds = %70
  store ptr null, ptr %2, align 8
  br label %115

78:                                               ; preds = %70
  %79 = load ptr, ptr %4, align 8
  %80 = ptrtoint ptr %79 to i64
  %81 = and i64 %80, -8
  %82 = inttoptr i64 %81 to ptr
  store ptr %82, ptr %4, align 8
  %83 = load ptr, ptr %7, align 8
  %84 = getelementptr inbounds %struct.hblkhdr, ptr %83, i32 0, i32 6
  %85 = load i64, ptr %84, align 8
  store i64 %85, ptr %10, align 8
  %86 = load ptr, ptr %4, align 8
  %87 = ptrtoint ptr %86 to i64
  %88 = and i64 %87, 4095
  %89 = load i64, ptr %10, align 8
  %90 = urem i64 %88, %89
  %91 = load ptr, ptr %4, align 8
  %92 = sub i64 0, %90
  %93 = getelementptr inbounds i8, ptr %91, i64 %92
  store ptr %93, ptr %4, align 8
  %94 = load ptr, ptr %4, align 8
  %95 = load i64, ptr %10, align 8
  %96 = getelementptr inbounds i8, ptr %94, i64 %95
  store ptr %96, ptr %11, align 8
  %97 = load ptr, ptr %11, align 8
  %98 = ptrtoint ptr %97 to i64
  %99 = load ptr, ptr %5, align 8
  %100 = getelementptr inbounds %struct.GC_hblk_s, ptr %99, i64 1
  %101 = ptrtoint ptr %100 to i64
  %102 = icmp ugt i64 %98, %101
  br i1 %102, label %103, label %106

103:                                              ; preds = %78
  %104 = load i64, ptr %10, align 8
  %105 = icmp ule i64 %104, 4096
  br i1 %105, label %112, label %106

106:                                              ; preds = %103, %78
  %107 = load ptr, ptr %3, align 8
  %108 = ptrtoint ptr %107 to i64
  %109 = load ptr, ptr %11, align 8
  %110 = ptrtoint ptr %109 to i64
  %111 = icmp uge i64 %108, %110
  br i1 %111, label %112, label %113

112:                                              ; preds = %106, %103
  store ptr null, ptr %2, align 8
  br label %115

113:                                              ; preds = %106
  %114 = load ptr, ptr %4, align 8
  store ptr %114, ptr %2, align 8
  br label %115

115:                                              ; preds = %113, %112, %77, %61, %16
  %116 = load ptr, ptr %2, align 8
  ret ptr %116
}

; Function Attrs: nounwind uwtable
define i32 @GC_debug_toggleref_add(ptr noundef nonnull %0, i32 noundef %1) #0 {
  %3 = alloca ptr, align 8
  %4 = alloca i32, align 4
  %5 = alloca ptr, align 8
  store ptr %0, ptr %3, align 8
  store i32 %1, ptr %4, align 4
  %6 = load ptr, ptr %3, align 8
  %7 = call ptr @GC_base(ptr noundef %6)
  store ptr %7, ptr %5, align 8
  %8 = load ptr, ptr %3, align 8
  %9 = load ptr, ptr %5, align 8
  %10 = ptrtoint ptr %8 to i64
  %11 = ptrtoint ptr %9 to i64
  %12 = sub i64 %10, %11
  %13 = icmp ne i64 %12, 32
  br i1 %13, label %14, label %16

14:                                               ; preds = %2
  %15 = load ptr, ptr %3, align 8
  call void (ptr, ...) @GC_err_printf(ptr noundef @.str.37, ptr noundef %15)
  br label %16

16:                                               ; preds = %14, %2
  %17 = load ptr, ptr %5, align 8
  %18 = load i32, ptr %4, align 4
  %19 = call i32 @GC_toggleref_add(ptr noundef %17, i32 noundef %18)
  ret i32 %19
}