; Function Attrs: nounwind uwtable
define range(i32 0, 3) i32 @GC_debug_toggleref_add(ptr noundef nonnull %0, i32 noundef %1) local_unnamed_addr #1 {
  %.b.i = load i1, ptr @GC_is_initialized, align 4
  %3 = ptrtoint ptr %0 to i64
  br i1 %.b.i, label %4, label %GC_base.exit

4:                                                ; preds = %2
  %5 = lshr i64 %3, 22
  %6 = and i64 %5, 2047
  %7 = getelementptr inbounds nuw [2048 x ptr], ptr getelementptr inbounds nuw (i8, ptr @GC_arrays, i64 166400), i64 0, i64 %6
  %8 = load ptr, ptr getelementptr inbounds nuw (i8, ptr @GC_arrays, i64 232), align 8
  br label %9

9:                                                ; preds = %9, %4
  %.027.in.i = phi ptr [ %7, %4 ], [ %15, %9 ]
  %.027.i = load ptr, ptr %.027.in.i, align 8
  %10 = getelementptr inbounds nuw i8, ptr %.027.i, i64 8208
  %11 = load i64, ptr %10, align 8
  %12 = icmp ne i64 %11, %5
  %13 = icmp ne ptr %.027.i, %8
  %14 = select i1 %12, i1 %13, i1 false
  %15 = getelementptr inbounds nuw i8, ptr %.027.i, i64 8216
  br i1 %14, label %9, label %16, !llvm.loop !20

16:                                               ; preds = %9
  %17 = lshr i64 %3, 12
  %18 = and i64 %17, 1023
  %19 = getelementptr inbounds nuw [1024 x ptr], ptr %.027.i, i64 0, i64 %18
  %20 = load ptr, ptr %19, align 8
  %21 = icmp eq ptr %20, null
  br i1 %21, label %GC_base.exit, label %22

22:                                               ; preds = %16
  %23 = and i64 %3, -4096
  %24 = inttoptr i64 %23 to ptr
  %25 = icmp ult ptr %20, inttoptr (i64 4096 to ptr)
  br i1 %25, label %.lr.ph.i.i, label %GC_find_starting_hblk.exit.i

.lr.ph.i.i:                                       ; preds = %22, %GC_find_header.exit.i.i
  %.012.i.i = phi ptr [ %.0.i.i, %GC_find_header.exit.i.i ], [ %20, %22 ]
  %.0811.i.i = phi ptr [ %28, %GC_find_header.exit.i.i ], [ %24, %22 ]
  %26 = ptrtoint ptr %.012.i.i to i64
  %27 = sub nsw i64 0, %26
  %28 = getelementptr inbounds %struct.GC_hblk_s, ptr %.0811.i.i, i64 %27
  %29 = ptrtoint ptr %28 to i64
  %30 = lshr i64 %29, 22
  %31 = and i64 %30, 2047
  %32 = getelementptr inbounds nuw [2048 x ptr], ptr getelementptr inbounds nuw (i8, ptr @GC_arrays, i64 166400), i64 0, i64 %31
  br label %33

33:                                               ; preds = %33, %.lr.ph.i.i
  %.0.in.i.i.i = phi ptr [ %32, %.lr.ph.i.i ], [ %39, %33 ]
  %.0.i.i.i = load ptr, ptr %.0.in.i.i.i, align 8
  %34 = getelementptr inbounds nuw i8, ptr %.0.i.i.i, i64 8208
  %35 = load i64, ptr %34, align 8
  %36 = icmp ne i64 %35, %30
  %37 = icmp ne ptr %.0.i.i.i, %8
  %38 = select i1 %36, i1 %37, i1 false
  %39 = getelementptr inbounds nuw i8, ptr %.0.i.i.i, i64 8216
  br i1 %38, label %33, label %GC_find_header.exit.i.i, !llvm.loop !15

GC_find_header.exit.i.i:                          ; preds = %33
  %40 = lshr i64 %29, 12
  %41 = and i64 %40, 1023
  %42 = getelementptr inbounds nuw [1024 x ptr], ptr %.0.i.i.i, i64 0, i64 %41
  %.0.i.i = load ptr, ptr %42, align 8
  %43 = icmp ult ptr %.0.i.i, inttoptr (i64 4096 to ptr)
  br i1 %43, label %.lr.ph.i.i, label %GC_find_starting_hblk.exit.i, !llvm.loop !19

GC_find_starting_hblk.exit.i:                     ; preds = %GC_find_header.exit.i.i, %22
  %.032.i = phi ptr [ %20, %22 ], [ %.0.i.i, %GC_find_header.exit.i.i ]
  %.028.i = phi ptr [ %24, %22 ], [ %28, %GC_find_header.exit.i.i ]
  %.026.i = phi ptr [ %0, %22 ], [ %28, %GC_find_header.exit.i.i ]
  %44 = getelementptr inbounds nuw i8, ptr %.032.i, i64 25
  %45 = load i8, ptr %44, align 1
  %46 = and i8 %45, 4
  %.not.i = icmp eq i8 %46, 0
  br i1 %.not.i, label %47, label %GC_base.exit

47:                                               ; preds = %GC_find_starting_hblk.exit.i
  %48 = ptrtoint ptr %.026.i to i64
  %49 = and i64 %48, -8
  %50 = inttoptr i64 %49 to ptr
  %51 = getelementptr inbounds nuw i8, ptr %.032.i, i64 32
  %52 = load i64, ptr %51, align 8
  %53 = and i64 %48, 4088
  %54 = urem i64 %53, %52
  %55 = sub nsw i64 0, %54
  %56 = getelementptr inbounds i8, ptr %50, i64 %55
  %57 = getelementptr inbounds i8, ptr %56, i64 %52
  %58 = getelementptr inbounds nuw i8, ptr %.028.i, i64 4096
  %59 = icmp ule ptr %57, %58
  %60 = icmp ugt i64 %52, 4096
  %or.cond.not35.i = or i1 %60, %59
  %.not30.i = icmp ult ptr %0, %57
  %or.cond31.i = and i1 %.not30.i, %or.cond.not35.i
  %spec.select.i = select i1 %or.cond31.i, ptr %56, ptr null
  br label %GC_base.exit

GC_base.exit:                                     ; preds = %2, %16, %GC_find_starting_hblk.exit.i, %47
  %.0.i = phi ptr [ null, %16 ], [ null, %GC_find_starting_hblk.exit.i ], [ %spec.select.i, %47 ], [ null, %2 ]
  %61 = ptrtoint ptr %.0.i to i64
  %62 = sub i64 %3, %61
  %.not = icmp eq i64 %62, 32
  br i1 %.not, label %64, label %63

63:                                               ; preds = %GC_base.exit
  tail call void (ptr, ...) @GC_err_printf(ptr noundef nonnull @.str.37, ptr noundef nonnull %0)
  br label %64

64:                                               ; preds = %63, %GC_base.exit
  %65 = tail call i32 @GC_toggleref_add(ptr noundef %.0.i, i32 noundef %1)
  ret i32 %65
}